; Function Attrs: nounwind uwtable
define internal i32 @prefix_write(ptr noundef %0, ptr noundef %1, i64 noundef %2, ptr noundef %3) #1 {
  %5 = alloca i64, align 8
  %6 = alloca i64, align 8
  %7 = tail call ptr @BIO_get_data(ptr noundef %0) #5
  %8 = icmp eq ptr %7, null
  br i1 %8, label %.thread77, label %9

9:                                                ; preds = %4
  %10 = load ptr, ptr %7, align 8, !tbaa !3
  %11 = icmp eq ptr %10, null
  br i1 %11, label %15, label %12

12:                                               ; preds = %9
  %13 = load i8, ptr %10, align 1, !tbaa !10
  %14 = icmp eq i8 %13, 0
  br i1 %14, label %15, label %30

15:                                               ; preds = %12, %9
  %16 = getelementptr inbounds nuw i8, ptr %7, i64 8
  %17 = load i32, ptr %16, align 8, !tbaa !11
  %18 = icmp eq i32 %17, 0
  br i1 %18, label %19, label %30

19:                                               ; preds = %15
  %.not71 = icmp eq i64 %2, 0
  br i1 %.not71, label %27, label %20

20:                                               ; preds = %19
  %21 = getelementptr i8, ptr %1, i64 %2
  %22 = getelementptr i8, ptr %21, i64 -1
  %23 = load i8, ptr %22, align 1, !tbaa !10
  %24 = icmp eq i8 %23, 10
  %25 = zext i1 %24 to i32
  %26 = getelementptr inbounds nuw i8, ptr %7, i64 12
  store i32 %25, ptr %26, align 4, !tbaa !12
  br label %27

27:                                               ; preds = %20, %19
  %28 = tail call ptr @BIO_next(ptr noundef %0) #5
  %29 = tail call i32 @BIO_write_ex(ptr noundef %28, ptr noundef %1, i64 noundef %2, ptr noundef %3) #5
  br label %.thread77

30:                                               ; preds = %15, %12
  store i64 0, ptr %3, align 8, !tbaa !13
  %.not89 = icmp eq i64 %2, 0
  br i1 %.not89, label %.thread77, label %.lr.ph93

.lr.ph93:                                         ; preds = %30
  %31 = getelementptr inbounds nuw i8, ptr %7, i64 12
  %32 = getelementptr inbounds nuw i8, ptr %7, i64 8
  br label %33

33:                                               ; preds = %.lr.ph93, %62
  %.05491 = phi ptr [ %1, %.lr.ph93 ], [ %.256.lcssa, %62 ]
  %.05890 = phi i64 [ %2, %.lr.ph93 ], [ %.260.lcssa, %62 ]
  %34 = load i32, ptr %31, align 4, !tbaa !12
  %.not65 = icmp eq i32 %34, 0
  br i1 %.not65, label %.preheader, label %35

.preheader:                                       ; preds = %.critedge73, %33
  br label %46

35:                                               ; preds = %33
  call void @llvm.lifetime.start.p0(i64 8, ptr nonnull %5) #5
  %36 = load ptr, ptr %7, align 8, !tbaa !3
  %.not66 = icmp eq ptr %36, null
  br i1 %.not66, label %.critedge73, label %37

37:                                               ; preds = %35
  %38 = call ptr @BIO_next(ptr noundef %0) #5
  %39 = load ptr, ptr %7, align 8, !tbaa !3
  %40 = call i64 @strlen(ptr noundef nonnull dereferenceable(1) %39) #6
  %41 = call i32 @BIO_write_ex(ptr noundef %38, ptr noundef nonnull %39, i64 noundef %40, ptr noundef nonnull %5) #5
  %.not67 = icmp eq i32 %41, 0
  br i1 %.not67, label %45, label %.critedge73

.critedge73:                                      ; preds = %37, %35
  %42 = call ptr @BIO_next(ptr noundef %0) #5
  %43 = load i32, ptr %32, align 8, !tbaa !11
  %44 = call i32 (ptr, ptr, ...) @BIO_printf(ptr noundef %42, ptr noundef nonnull @.str.2, i32 noundef %43, ptr noundef nonnull @.str.3) #5
  store i32 0, ptr %31, align 4, !tbaa !12
  call void @llvm.lifetime.end.p0(i64 8, ptr nonnull %5) #5
  br label %.preheader

45:                                               ; preds = %37
  call void @llvm.lifetime.end.p0(i64 8, ptr nonnull %5) #5
  br label %.thread77

46:                                               ; preds = %.preheader, %49
  %.04583 = phi i64 [ %50, %49 ], [ 0, %.preheader ]
  %47 = getelementptr inbounds nuw i8, ptr %.05491, i64 %.04583
  %48 = load i8, ptr %47, align 1, !tbaa !10
  %.not68 = icmp eq i8 %48, 10
  br i1 %.not68, label %.critedge, label %49

49:                                               ; preds = %46
  %50 = add nuw i64 %.04583, 1
  %exitcond.not = icmp eq i64 %50, %.05890
  br i1 %exitcond.not, label %.critedge, label %46, !llvm.loop !15

.critedge:                                        ; preds = %49, %46
  %.045.lcssa = phi i64 [ %.05890, %49 ], [ %.04583, %46 ]
  %51 = zext i1 %.not68 to i64
  %spec.select = add nuw i64 %.045.lcssa, %51
  %.not6984 = icmp eq i64 %spec.select, 0
  br i1 %.not6984, label %._crit_edge, label %.lr.ph

.lr.ph:                                           ; preds = %.critedge, %54
  %.287 = phi i64 [ %60, %54 ], [ %spec.select, %.critedge ]
  %.25686 = phi ptr [ %56, %54 ], [ %.05491, %.critedge ]
  %.26085 = phi i64 [ %57, %54 ], [ %.05890, %.critedge ]
  call void @llvm.lifetime.start.p0(i64 8, ptr nonnull %6) #5
  store i64 0, ptr %6, align 8, !tbaa !13
  %52 = call ptr @BIO_next(ptr noundef %0) #5
  %53 = call i32 @BIO_write_ex(ptr noundef %52, ptr noundef %.25686, i64 noundef %.287, ptr noundef nonnull %6) #5
  %.not70.not = icmp eq i32 %53, 0
  br i1 %.not70.not, label %.thread, label %54

.thread:                                          ; preds = %.lr.ph
  call void @llvm.lifetime.end.p0(i64 8, ptr nonnull %6) #5
  br label %.thread77

54:                                               ; preds = %.lr.ph
  %55 = load i64, ptr %6, align 8, !tbaa !13
  %56 = getelementptr inbounds nuw i8, ptr %.25686, i64 %55
  %57 = sub i64 %.26085, %55
  %58 = load i64, ptr %3, align 8, !tbaa !13
  %59 = add i64 %58, %55
  store i64 %59, ptr %3, align 8, !tbaa !13
  %60 = sub i64 %.287, %55
  call void @llvm.lifetime.end.p0(i64 8, ptr nonnull %6) #5
  %.not69 = icmp eq i64 %60, 0
  br i1 %.not69, label %._crit_edge, label %.lr.ph, !llvm.loop !17

._crit_edge:                                      ; preds = %54, %.critedge
  %.260.lcssa = phi i64 [ %.05890, %.critedge ], [ %57, %54 ]
  %.256.lcssa = phi ptr [ %.05491, %.critedge ], [ %56, %54 ]
  br i1 %.not68, label %61, label %62

61:                                               ; preds = %._crit_edge
  store i32 1, ptr %31, align 4, !tbaa !12
  br label %62

62:                                               ; preds = %._crit_edge, %61
  %.not = icmp eq i64 %.260.lcssa, 0
  br i1 %.not, label %.thread77, label %33, !llvm.loop !18

.thread77:                                        ; preds = %62, %30, %.thread, %45, %4, %27
  %.050 = phi i32 [ %29, %27 ], [ 0, %4 ], [ 0, %45 ], [ 0, %.thread ], [ 1, %30 ], [ 1, %62 ]
  ret i32 %.050
}